target datalayout = "e-m:e-p270:32:32-p271:32:32-p272:64:64-i64:64-i128:128-f80:128-n8:16:32:64-S128"
target triple = "x86_64-pc-linux-gnu"

%struct.__loadu_si128 = type { <2 x i64> }
%struct.__storeu_si128 = type { <2 x i64> }
%struct.__mm_loadl_epi64_struct = type { i64 }
%struct.__mm_storel_epi64_struct = type { i64 }

; Function Attrs: alwaysinline nounwind uwtable
define internal void @_mm_storel_epi64(ptr noundef %0, <2 x i64> noundef %1) #3 {
  %3 = alloca ptr, align 8
  %4 = alloca <2 x i64>, align 16
  store ptr %0, ptr %3, align 8, !tbaa !3
  store <2 x i64> %1, ptr %4, align 16, !tbaa !11
  %5 = load <2 x i64>, ptr %4, align 16, !tbaa !11
  %6 = extractelement <2 x i64> %5, i32 0
  %7 = load ptr, ptr %3, align 8, !tbaa !3
  %8 = getelementptr inbounds nuw %struct.__mm_storel_epi64_struct, ptr %7, i32 0, i32 0
  store i64 %6, ptr %8, align 1, !tbaa !11
  ret void
}

; Function Attrs: alwaysinline nounwind uwtable
define internal <2 x i64> @_mm_loadl_epi64(ptr noundef %0) #3 {
  %2 = alloca ptr, align 8
  %3 = alloca <2 x i64>, align 16
  store ptr %0, ptr %2, align 8, !tbaa !3
  %4 = load ptr, ptr %2, align 8, !tbaa !3
  %5 = getelementptr inbounds nuw %struct.__mm_loadl_epi64_struct, ptr %4, i32 0, i32 0
  %6 = load i64, ptr %5, align 1, !tbaa !11
  %7 = insertelement <2 x i64> poison, i64 %6, i32 0
  %8 = insertelement <2 x i64> %7, i64 0, i32 1
  store <2 x i64> %8, ptr %3, align 16, !tbaa !11
  %9 = load <2 x i64>, ptr %3, align 16, !tbaa !11
  ret <2 x i64> %9
}

; Function Attrs: alwaysinline nounwind uwtable
define internal void @_mm_storeu_si128(ptr noundef %0, <2 x i64> noundef %1) #3 {
  %3 = alloca ptr, align 8
  %4 = alloca <2 x i64>, align 16
  store ptr %0, ptr %3, align 8, !tbaa !3
  store <2 x i64> %1, ptr %4, align 16, !tbaa !11
  %5 = load <2 x i64>, ptr %4, align 16, !tbaa !11
  %6 = load ptr, ptr %3, align 8, !tbaa !3
  %7 = getelementptr inbounds nuw %struct.__storeu_si128, ptr %6, i32 0, i32 0
  store <2 x i64> %5, ptr %7, align 1, !tbaa !11
  ret void
}

; Function Attrs: alwaysinline nounwind uwtable
define internal <2 x i64> @_mm_add_epi32(<2 x i64> noundef %0, <2 x i64> noundef %1) #3 {
  %3 = alloca <2 x i64>, align 16
  %4 = alloca <2 x i64>, align 16
  store <2 x i64> %0, ptr %3, align 16, !tbaa !11
  store <2 x i64> %1, ptr %4, align 16, !tbaa !11
  %5 = load <2 x i64>, ptr %3, align 16, !tbaa !11
  %6 = bitcast <2 x i64> %5 to <4 x i32>
  %7 = load <2 x i64>, ptr %4, align 16, !tbaa !11
  %8 = bitcast <2 x i64> %7 to <4 x i32>
  %9 = add <4 x i32> %6, %8
  %10 = bitcast <4 x i32> %9 to <2 x i64>
  ret <2 x i64> %10
}

; Function Attrs: alwaysinline nounwind uwtable
define internal <2 x i64> @_mm_loadu_si128(ptr noundef %0) #3 {
  %2 = alloca ptr, align 8
  store ptr %0, ptr %2, align 8, !tbaa !3
  %3 = load ptr, ptr %2, align 8, !tbaa !3
  %4 = getelementptr inbounds nuw %struct.__loadu_si128, ptr %3, i32 0, i32 0
  %5 = load <2 x i64>, ptr %4, align 1, !tbaa !11
  ret <2 x i64> %5
}

; Function Attrs: nounwind uwtable
define internal void @AddVectorEq_SSE2(ptr noalias noundef %0, ptr noalias noundef %1, i32 noundef %2) #1 {
  %4 = alloca ptr, align 8
  %5 = alloca ptr, align 8
  %6 = alloca i32, align 4
  %7 = alloca i32, align 4
  %8 = alloca i32, align 4
  %9 = alloca <2 x i64>, align 16
  %10 = alloca <2 x i64>, align 16
  %11 = alloca <2 x i64>, align 16
  %12 = alloca <2 x i64>, align 16
  %13 = alloca <2 x i64>, align 16
  %14 = alloca <2 x i64>, align 16
  %15 = alloca <2 x i64>, align 16
  %16 = alloca <2 x i64>, align 16
  %17 = alloca <2 x i64>, align 16
  %18 = alloca <2 x i64>, align 16
  %19 = alloca <2 x i64>, align 16
  %20 = alloca <2 x i64>, align 16
  %21 = alloca <2 x i64>, align 16
  %22 = alloca <2 x i64>, align 16
  %23 = alloca <2 x i64>, align 16
  %24 = alloca <2 x i64>, align 16
  store ptr %0, ptr %4, align 8, !tbaa !7
  store ptr %1, ptr %5, align 8, !tbaa !7
  store i32 %2, ptr %6, align 4, !tbaa !9
  call void @llvm.lifetime.start.p0(i64 4, ptr %7) #9
  store i32 0, ptr %7, align 4, !tbaa !9
  call void @llvm.lifetime.start.p0(i64 4, ptr %8) #9
  %25 = load i32, ptr %6, align 4, !tbaa !9
  %26 = and i32 %25, -16
  store i32 %26, ptr %8, align 4, !tbaa !9
  br label %27

27:                                               ; preds = %110, %3
  call void @llvm.lifetime.start.p0(i64 16, ptr %9) #9
  %28 = load ptr, ptr %4, align 8, !tbaa !7
  %29 = load i32, ptr %7, align 4, !tbaa !9
  %30 = add nsw i32 %29, 0
  %31 = sext i32 %30 to i64
  %32 = getelementptr inbounds i32, ptr %28, i64 %31
  %33 = call <2 x i64> @_mm_loadu_si128(ptr noundef %32)
  store <2 x i64> %33, ptr %9, align 16, !tbaa !11
  call void @llvm.lifetime.start.p0(i64 16, ptr %10) #9
  %34 = load ptr, ptr %4, align 8, !tbaa !7
  %35 = load i32, ptr %7, align 4, !tbaa !9
  %36 = add nsw i32 %35, 4
  %37 = sext i32 %36 to i64
  %38 = getelementptr inbounds i32, ptr %34, i64 %37
  %39 = call <2 x i64> @_mm_loadu_si128(ptr noundef %38)
  store <2 x i64> %39, ptr %10, align 16, !tbaa !11
  call void @llvm.lifetime.start.p0(i64 16, ptr %11) #9
  %40 = load ptr, ptr %4, align 8, !tbaa !7
  %41 = load i32, ptr %7, align 4, !tbaa !9
  %42 = add nsw i32 %41, 8
  %43 = sext i32 %42 to i64
  %44 = getelementptr inbounds i32, ptr %40, i64 %43
  %45 = call <2 x i64> @_mm_loadu_si128(ptr noundef %44)
  store <2 x i64> %45, ptr %11, align 16, !tbaa !11
  call void @llvm.lifetime.start.p0(i64 16, ptr %12) #9
  %46 = load ptr, ptr %4, align 8, !tbaa !7
  %47 = load i32, ptr %7, align 4, !tbaa !9
  %48 = add nsw i32 %47, 12
  %49 = sext i32 %48 to i64
  %50 = getelementptr inbounds i32, ptr %46, i64 %49
  %51 = call <2 x i64> @_mm_loadu_si128(ptr noundef %50)
  store <2 x i64> %51, ptr %12, align 16, !tbaa !11
  call void @llvm.lifetime.start.p0(i64 16, ptr %13) #9
  %52 = load ptr, ptr %5, align 8, !tbaa !7
  %53 = load i32, ptr %7, align 4, !tbaa !9
  %54 = add nsw i32 %53, 0
  %55 = sext i32 %54 to i64
  %56 = getelementptr inbounds i32, ptr %52, i64 %55
  %57 = call <2 x i64> @_mm_loadu_si128(ptr noundef %56)
  store <2 x i64> %57, ptr %13, align 16, !tbaa !11
  call void @llvm.lifetime.start.p0(i64 16, ptr %14) #9
  %58 = load ptr, ptr %5, align 8, !tbaa !7
  %59 = load i32, ptr %7, align 4, !tbaa !9
  %60 = add nsw i32 %59, 4
  %61 = sext i32 %60 to i64
  %62 = getelementptr inbounds i32, ptr %58, i64 %61
  %63 = call <2 x i64> @_mm_loadu_si128(ptr noundef %62)
  store <2 x i64> %63, ptr %14, align 16, !tbaa !11
  call void @llvm.lifetime.start.p0(i64 16, ptr %15) #9
  %64 = load ptr, ptr %5, align 8, !tbaa !7
  %65 = load i32, ptr %7, align 4, !tbaa !9
  %66 = add nsw i32 %65, 8
  %67 = sext i32 %66 to i64
  %68 = getelementptr inbounds i32, ptr %64, i64 %67
  %69 = call <2 x i64> @_mm_loadu_si128(ptr noundef %68)
  store <2 x i64> %69, ptr %15, align 16, !tbaa !11
  call void @llvm.lifetime.start.p0(i64 16, ptr %16) #9
  %70 = load ptr, ptr %5, align 8, !tbaa !7
  %71 = load i32, ptr %7, align 4, !tbaa !9
  %72 = add nsw i32 %71, 12
  %73 = sext i32 %72 to i64
  %74 = getelementptr inbounds i32, ptr %70, i64 %73
  %75 = call <2 x i64> @_mm_loadu_si128(ptr noundef %74)
  store <2 x i64> %75, ptr %16, align 16, !tbaa !11
  %76 = load ptr, ptr %5, align 8, !tbaa !7
  %77 = load i32, ptr %7, align 4, !tbaa !9
  %78 = add nsw i32 %77, 0
  %79 = sext i32 %78 to i64
  %80 = getelementptr inbounds i32, ptr %76, i64 %79
  %81 = load <2 x i64>, ptr %9, align 16, !tbaa !11
  %82 = load <2 x i64>, ptr %13, align 16, !tbaa !11
  %83 = call <2 x i64> @_mm_add_epi32(<2 x i64> noundef %81, <2 x i64> noundef %82)
  call void @_mm_storeu_si128(ptr noundef %80, <2 x i64> noundef %83)
  %84 = load ptr, ptr %5, align 8, !tbaa !7
  %85 = load i32, ptr %7, align 4, !tbaa !9
  %86 = add nsw i32 %85, 4
  %87 = sext i32 %86 to i64
  %88 = getelementptr inbounds i32, ptr %84, i64 %87
  %89 = load <2 x i64>, ptr %10, align 16, !tbaa !11
  %90 = load <2 x i64>, ptr %14, align 16, !tbaa !11
  %91 = call <2 x i64> @_mm_add_epi32(<2 x i64> noundef %89, <2 x i64> noundef %90)
  call void @_mm_storeu_si128(ptr noundef %88, <2 x i64> noundef %91)
  %92 = load ptr, ptr %5, align 8, !tbaa !7
  %93 = load i32, ptr %7, align 4, !tbaa !9
  %94 = add nsw i32 %93, 8
  %95 = sext i32 %94 to i64
  %96 = getelementptr inbounds i32, ptr %92, i64 %95
  %97 = load <2 x i64>, ptr %11, align 16, !tbaa !11
  %98 = load <2 x i64>, ptr %15, align 16, !tbaa !11
  %99 = call <2 x i64> @_mm_add_epi32(<2 x i64> noundef %97, <2 x i64> noundef %98)
  call void @_mm_storeu_si128(ptr noundef %96, <2 x i64> noundef %99)
  %100 = load ptr, ptr %5, align 8, !tbaa !7
  %101 = load i32, ptr %7, align 4, !tbaa !9
  %102 = add nsw i32 %101, 12
  %103 = sext i32 %102 to i64
  %104 = getelementptr inbounds i32, ptr %100, i64 %103
  %105 = load <2 x i64>, ptr %12, align 16, !tbaa !11
  %106 = load <2 x i64>, ptr %16, align 16, !tbaa !11
  %107 = call <2 x i64> @_mm_add_epi32(<2 x i64> noundef %105, <2 x i64> noundef %106)
  call void @_mm_storeu_si128(ptr noundef %104, <2 x i64> noundef %107)
  %108 = load i32, ptr %7, align 4, !tbaa !9
  %109 = add nsw i32 %108, 16
  store i32 %109, ptr %7, align 4, !tbaa !9
  call void @llvm.lifetime.end.p0(i64 16, ptr %16) #9
  call void @llvm.lifetime.end.p0(i64 16, ptr %15) #9
  call void @llvm.lifetime.end.p0(i64 16, ptr %14) #9
  call void @llvm.lifetime.end.p0(i64 16, ptr %13) #9
  call void @llvm.lifetime.end.p0(i64 16, ptr %12) #9
  call void @llvm.lifetime.end.p0(i64 16, ptr %11) #9
  call void @llvm.lifetime.end.p0(i64 16, ptr %10) #9
  call void @llvm.lifetime.end.p0(i64 16, ptr %9) #9
  br label %110

110:                                              ; preds = %27
  %111 = load i32, ptr %7, align 4, !tbaa !9
  %112 = load i32, ptr %8, align 4, !tbaa !9
  %113 = icmp ne i32 %111, %112
  br i1 %113, label %27, label %114, !llvm.loop !28

114:                                              ; preds = %110
  %115 = load i32, ptr %6, align 4, !tbaa !9
  %116 = and i32 %115, 8
  %117 = icmp ne i32 %116, 0
  br i1 %117, label %118, label %161

118:                                              ; preds = %114
  call void @llvm.lifetime.start.p0(i64 16, ptr %17) #9
  %119 = load ptr, ptr %4, align 8, !tbaa !7
  %120 = load i32, ptr %7, align 4, !tbaa !9
  %121 = add nsw i32 %120, 0
  %122 = sext i32 %121 to i64
  %123 = getelementptr inbounds i32, ptr %119, i64 %122
  %124 = call <2 x i64> @_mm_loadu_si128(ptr noundef %123)
  store <2 x i64> %124, ptr %17, align 16, !tbaa !11
  call void @llvm.lifetime.start.p0(i64 16, ptr %18) #9
  %125 = load ptr, ptr %4, align 8, !tbaa !7
  %126 = load i32, ptr %7, align 4, !tbaa !9
  %127 = add nsw i32 %126, 4
  %128 = sext i32 %127 to i64
  %129 = getelementptr inbounds i32, ptr %125, i64 %128
  %130 = call <2 x i64> @_mm_loadu_si128(ptr noundef %129)
  store <2 x i64> %130, ptr %18, align 16, !tbaa !11
  call void @llvm.lifetime.start.p0(i64 16, ptr %19) #9
  %131 = load ptr, ptr %5, align 8, !tbaa !7
  %132 = load i32, ptr %7, align 4, !tbaa !9
  %133 = add nsw i32 %132, 0
  %134 = sext i32 %133 to i64
  %135 = getelementptr inbounds i32, ptr %131, i64 %134
  %136 = call <2 x i64> @_mm_loadu_si128(ptr noundef %135)
  store <2 x i64> %136, ptr %19, align 16, !tbaa !11
  call void @llvm.lifetime.start.p0(i64 16, ptr %20) #9
  %137 = load ptr, ptr %5, align 8, !tbaa !7
  %138 = load i32, ptr %7, align 4, !tbaa !9
  %139 = add nsw i32 %138, 4
  %140 = sext i32 %139 to i64
  %141 = getelementptr inbounds i32, ptr %137, i64 %140
  %142 = call <2 x i64> @_mm_loadu_si128(ptr noundef %141)
  store <2 x i64> %142, ptr %20, align 16, !tbaa !11
  %143 = load ptr, ptr %5, align 8, !tbaa !7
  %144 = load i32, ptr %7, align 4, !tbaa !9
  %145 = add nsw i32 %144, 0
  %146 = sext i32 %145 to i64
  %147 = getelementptr inbounds i32, ptr %143, i64 %146
  %148 = load <2 x i64>, ptr %17, align 16, !tbaa !11
  %149 = load <2 x i64>, ptr %19, align 16, !tbaa !11
  %150 = call <2 x i64> @_mm_add_epi32(<2 x i64> noundef %148, <2 x i64> noundef %149)
  call void @_mm_storeu_si128(ptr noundef %147, <2 x i64> noundef %150)
  %151 = load ptr, ptr %5, align 8, !tbaa !7
  %152 = load i32, ptr %7, align 4, !tbaa !9
  %153 = add nsw i32 %152, 4
  %154 = sext i32 %153 to i64
  %155 = getelementptr inbounds i32, ptr %151, i64 %154
  %156 = load <2 x i64>, ptr %18, align 16, !tbaa !11
  %157 = load <2 x i64>, ptr %20, align 16, !tbaa !11
  %158 = call <2 x i64> @_mm_add_epi32(<2 x i64> noundef %156, <2 x i64> noundef %157)
  call void @_mm_storeu_si128(ptr noundef %155, <2 x i64> noundef %158)
  %159 = load i32, ptr %7, align 4, !tbaa !9
  %160 = add nsw i32 %159, 8
  store i32 %160, ptr %7, align 4, !tbaa !9
  call void @llvm.lifetime.end.p0(i64 16, ptr %20) #9
  call void @llvm.lifetime.end.p0(i64 16, ptr %19) #9
  call void @llvm.lifetime.end.p0(i64 16, ptr %18) #9
  call void @llvm.lifetime.end.p0(i64 16, ptr %17) #9
  br label %161

161:                                              ; preds = %118, %114
  %162 = load i32, ptr %6, align 4, !tbaa !9
  %163 = and i32 %162, 7
  store i32 %163, ptr %6, align 4, !tbaa !9
  %164 = load i32, ptr %6, align 4, !tbaa !9
  %165 = icmp eq i32 %164, 4
  br i1 %165, label %166, label %184

166:                                              ; preds = %161
  call void @llvm.lifetime.start.p0(i64 16, ptr %21) #9
  %167 = load ptr, ptr %4, align 8, !tbaa !7
  %168 = load i32, ptr %7, align 4, !tbaa !9
  %169 = sext i32 %168 to i64
  %170 = getelementptr inbounds i32, ptr %167, i64 %169
  %171 = call <2 x i64> @_mm_loadu_si128(ptr noundef %170)
  store <2 x i64> %171, ptr %21, align 16, !tbaa !11
  call void @llvm.lifetime.start.p0(i64 16, ptr %22) #9
  %172 = load ptr, ptr %5, align 8, !tbaa !7
  %173 = load i32, ptr %7, align 4, !tbaa !9
  %174 = sext i32 %173 to i64
  %175 = getelementptr inbounds i32, ptr %172, i64 %174
  %176 = call <2 x i64> @_mm_loadu_si128(ptr noundef %175)
  store <2 x i64> %176, ptr %22, align 16, !tbaa !11
  %177 = load ptr, ptr %5, align 8, !tbaa !7
  %178 = load i32, ptr %7, align 4, !tbaa !9
  %179 = sext i32 %178 to i64
  %180 = getelementptr inbounds i32, ptr %177, i64 %179
  %181 = load <2 x i64>, ptr %21, align 16, !tbaa !11
  %182 = load <2 x i64>, ptr %22, align 16, !tbaa !11
  %183 = call <2 x i64> @_mm_add_epi32(<2 x i64> noundef %181, <2 x i64> noundef %182)
  call void @_mm_storeu_si128(ptr noundef %180, <2 x i64> noundef %183)
  call void @llvm.lifetime.end.p0(i64 16, ptr %22) #9
  call void @llvm.lifetime.end.p0(i64 16, ptr %21) #9
  br label %206

184:                                              ; preds = %161
  %185 = load i32, ptr %6, align 4, !tbaa !9
  %186 = icmp eq i32 %185, 2
  br i1 %186, label %187, label %205

187:                                              ; preds = %184
  call void @llvm.lifetime.start.p0(i64 16, ptr %23) #9
  %188 = load ptr, ptr %4, align 8, !tbaa !7
  %189 = load i32, ptr %7, align 4, !tbaa !9
  %190 = sext i32 %189 to i64
  %191 = getelementptr inbounds i32, ptr %188, i64 %190
  %192 = call <2 x i64> @_mm_loadl_epi64(ptr noundef %191)
  store <2 x i64> %192, ptr %23, align 16, !tbaa !11
  call void @llvm.lifetime.start.p0(i64 16, ptr %24) #9
  %193 = load ptr, ptr %5, align 8, !tbaa !7
  %194 = load i32, ptr %7, align 4, !tbaa !9
  %195 = sext i32 %194 to i64
  %196 = getelementptr inbounds i32, ptr %193, i64 %195
  %197 = call <2 x i64> @_mm_loadl_epi64(ptr noundef %196)
  store <2 x i64> %197, ptr %24, align 16, !tbaa !11
  %198 = load ptr, ptr %5, align 8, !tbaa !7
  %199 = load i32, ptr %7, align 4, !tbaa !9
  %200 = sext i32 %199 to i64
  %201 = getelementptr inbounds i32, ptr %198, i64 %200
  %202 = load <2 x i64>, ptr %23, align 16, !tbaa !11
  %203 = load <2 x i64>, ptr %24, align 16, !tbaa !11
  %204 = call <2 x i64> @_mm_add_epi32(<2 x i64> noundef %202, <2 x i64> noundef %203)
  call void @_mm_storel_epi64(ptr noundef %201, <2 x i64> noundef %204)
  call void @llvm.lifetime.end.p0(i64 16, ptr %24) #9
  call void @llvm.lifetime.end.p0(i64 16, ptr %23) #9
  br label %205

205:                                              ; preds = %187, %184
  br label %206

206:                                              ; preds = %205, %166
  call void @llvm.lifetime.end.p0(i64 4, ptr %8) #9
  call void @llvm.lifetime.end.p0(i64 4, ptr %7) #9
  ret void
}