; Function Attrs: nofree norecurse nosync nounwind memory(argmem: readwrite) uwtable
define internal void @AddVectorEq_SSE2(ptr noalias noundef readonly captures(none) %0, ptr noalias noundef captures(none) %1, i32 noundef %2) #2 {
  %4 = and i32 %2, -16
  %5 = zext i32 %4 to i64
  br label %6

6:                                                ; preds = %6, %3
  %indvars.iv = phi i64 [ %indvars.iv.next, %6 ], [ 0, %3 ]
  %7 = getelementptr inbounds nuw i32, ptr %0, i64 %indvars.iv
  %8 = load <4 x i32>, ptr %7, align 1, !tbaa !7
  %9 = or disjoint i64 %indvars.iv, 4
  %10 = getelementptr inbounds nuw i32, ptr %0, i64 %9
  %11 = load <4 x i32>, ptr %10, align 1, !tbaa !7
  %12 = or disjoint i64 %indvars.iv, 8
  %13 = getelementptr inbounds nuw i32, ptr %0, i64 %12
  %14 = load <4 x i32>, ptr %13, align 1, !tbaa !7
  %15 = or disjoint i64 %indvars.iv, 12
  %16 = getelementptr inbounds nuw i32, ptr %0, i64 %15
  %17 = load <4 x i32>, ptr %16, align 1, !tbaa !7
  %18 = getelementptr inbounds nuw i32, ptr %1, i64 %indvars.iv
  %19 = load <4 x i32>, ptr %18, align 1, !tbaa !7
  %20 = getelementptr inbounds nuw i32, ptr %1, i64 %9
  %21 = load <4 x i32>, ptr %20, align 1, !tbaa !7
  %22 = getelementptr inbounds nuw i32, ptr %1, i64 %12
  %23 = load <4 x i32>, ptr %22, align 1, !tbaa !7
  %24 = getelementptr inbounds nuw i32, ptr %1, i64 %15
  %25 = load <4 x i32>, ptr %24, align 1, !tbaa !7
  %26 = add <4 x i32> %19, %8
  store <4 x i32> %26, ptr %18, align 1, !tbaa !7
  %27 = add <4 x i32> %21, %11
  store <4 x i32> %27, ptr %20, align 1, !tbaa !7
  %28 = add <4 x i32> %23, %14
  store <4 x i32> %28, ptr %22, align 1, !tbaa !7
  %29 = add <4 x i32> %25, %17
  store <4 x i32> %29, ptr %24, align 1, !tbaa !7
  %indvars.iv.next = add nuw nsw i64 %indvars.iv, 16
  %.not = icmp eq i64 %indvars.iv.next, %5
  br i1 %.not, label %30, label %6, !llvm.loop !26

30:                                               ; preds = %6
  %31 = and i32 %2, 8
  %.not74 = icmp eq i32 %31, 0
  br i1 %.not74, label %47, label %32

32:                                               ; preds = %30
  %33 = trunc nuw nsw i64 %indvars.iv to i32
  %34 = getelementptr inbounds nuw i32, ptr %0, i64 %5
  %35 = load <4 x i32>, ptr %34, align 1, !tbaa !7
  %36 = add nuw i64 %indvars.iv, 20
  %37 = and i64 %36, 4294967284
  %38 = getelementptr inbounds nuw i32, ptr %0, i64 %37
  %39 = load <4 x i32>, ptr %38, align 1, !tbaa !7
  %40 = getelementptr inbounds nuw i32, ptr %1, i64 %5
  %41 = load <4 x i32>, ptr %40, align 1, !tbaa !7
  %42 = getelementptr inbounds nuw i32, ptr %1, i64 %37
  %43 = load <4 x i32>, ptr %42, align 1, !tbaa !7
  %44 = add <4 x i32> %41, %35
  store <4 x i32> %44, ptr %40, align 1, !tbaa !7
  %45 = add <4 x i32> %43, %39
  store <4 x i32> %45, ptr %42, align 1, !tbaa !7
  %46 = add nuw nsw i32 %33, 24
  br label %47

47:                                               ; preds = %32, %30
  %.1 = phi i32 [ %46, %32 ], [ %4, %30 ]
  %48 = and i32 %2, 7
  switch i32 %48, label %69 [
    i32 4, label %49
    i32 2, label %56
  ]

49:                                               ; preds = %47
  %50 = sext i32 %.1 to i64
  %51 = getelementptr inbounds i32, ptr %0, i64 %50
  %52 = load <4 x i32>, ptr %51, align 1, !tbaa !7
  %53 = getelementptr inbounds i32, ptr %1, i64 %50
  %54 = load <4 x i32>, ptr %53, align 1, !tbaa !7
  %55 = add <4 x i32> %54, %52
  store <4 x i32> %55, ptr %53, align 1, !tbaa !7
  br label %69

56:                                               ; preds = %47
  %57 = sext i32 %.1 to i64
  %58 = getelementptr inbounds i32, ptr %0, i64 %57
  %59 = load i64, ptr %58, align 1, !tbaa !7
  %60 = insertelement <2 x i64> poison, i64 %59, i64 0
  %61 = getelementptr inbounds i32, ptr %1, i64 %57
  %62 = load i64, ptr %61, align 1, !tbaa !7
  %63 = insertelement <2 x i64> poison, i64 %62, i64 0
  %64 = bitcast <2 x i64> %60 to <4 x i32>
  %65 = bitcast <2 x i64> %63 to <4 x i32>
  %66 = add <4 x i32> %65, %64
  %67 = bitcast <4 x i32> %66 to <2 x i64>
  %68 = extractelement <2 x i64> %67, i64 0
  store i64 %68, ptr %61, align 1, !tbaa !7
  br label %69

69:                                               ; preds = %47, %56, %49
  ret void
}